target datalayout = "e-m:e-p270:32:32-p271:32:32-p272:64:64-i64:64-i128:128-f80:128-n8:16:32:64-S128"
target triple = "x86_64-pc-linux-gnu"

%struct.ma_loshelf2_config = type { i32, i32, i32, double, double, double }

; Function Attrs: alwaysinline nounwind uwtable
define internal void @ma_zero_memory_default(ptr noundef %0, i64 noundef %1) #7 {
  %3 = alloca ptr, align 8
  %4 = alloca i64, align 8
  store ptr %0, ptr %3, align 8
  store i64 %1, ptr %4, align 8
  %5 = load ptr, ptr %3, align 8
  %6 = icmp eq ptr %5, null
  br i1 %6, label %7, label %8

7:                                                ; preds = %2
  br label %14

8:                                                ; preds = %2
  %9 = load i64, ptr %4, align 8
  %10 = icmp ugt i64 %9, 0
  br i1 %10, label %11, label %14

11:                                               ; preds = %8
  %12 = load ptr, ptr %3, align 8
  %13 = load i64, ptr %4, align 8
  call void @llvm.memset.p0.i64(ptr align 1 %12, i8 0, i64 %13, i1 false)
  br label %14

14:                                               ; preds = %7, %11, %8
  ret void
}

; Function Attrs: nounwind uwtable
define hidden void @ma_loshelf2_config_init(ptr dead_on_unwind noalias writable sret(%struct.ma_loshelf2_config) align 8 %0, i32 noundef %1, i32 noundef %2, i32 noundef %3, double noundef %4, double noundef %5, double noundef %6) #0 {
  %8 = alloca i32, align 4
  %9 = alloca i32, align 4
  %10 = alloca i32, align 4
  %11 = alloca double, align 8
  %12 = alloca double, align 8
  %13 = alloca double, align 8
  store i32 %1, ptr %8, align 4
  store i32 %2, ptr %9, align 4
  store i32 %3, ptr %10, align 4
  store double %4, ptr %11, align 8
  store double %5, ptr %12, align 8
  store double %6, ptr %13, align 8
  call void @ma_zero_memory_default(ptr noundef %0, i64 noundef 40)
  %14 = load i32, ptr %8, align 4
  %15 = getelementptr inbounds nuw %struct.ma_loshelf2_config, ptr %0, i32 0, i32 0
  store i32 %14, ptr %15, align 8
  %16 = load i32, ptr %9, align 4
  %17 = getelementptr inbounds nuw %struct.ma_loshelf2_config, ptr %0, i32 0, i32 1
  store i32 %16, ptr %17, align 4
  %18 = load i32, ptr %10, align 4
  %19 = getelementptr inbounds nuw %struct.ma_loshelf2_config, ptr %0, i32 0, i32 2
  store i32 %18, ptr %19, align 8
  %20 = load double, ptr %11, align 8
  %21 = getelementptr inbounds nuw %struct.ma_loshelf2_config, ptr %0, i32 0, i32 3
  store double %20, ptr %21, align 8
  %22 = load double, ptr %12, align 8
  %23 = getelementptr inbounds nuw %struct.ma_loshelf2_config, ptr %0, i32 0, i32 4
  store double %22, ptr %23, align 8
  %24 = load double, ptr %13, align 8
  %25 = getelementptr inbounds nuw %struct.ma_loshelf2_config, ptr %0, i32 0, i32 5
  store double %24, ptr %25, align 8
  ret void
}